ccopy_reg
_reconstructor
p0
(csklearn.naive_bayes
GaussianNB
p1
c__builtin__
object
p2
Ntp3
Rp4
(dp5
S'class_prior_'
p6
cnumpy.core.multiarray
_reconstruct
p7
(cnumpy
ndarray
p8
(I0
tp9
S'b'
p10
tp11
Rp12
(I1
(I2
tp13
cnumpy
dtype
p14
(S'f8'
p15
I0
I1
tp16
Rp17
(I3
S'<'
p18
NNNI-1
I-1
I0
tp19
bI00
S'\xcf\xbd?\x89\x84\xfc\xe9?\xc2\x08\x01\xdb\xed\r\xc8?'
p20
tp21
bsS'priors'
p22
NsS'classes_'
p23
g7
(g8
(I0
tp24
g10
tp25
Rp26
(I1
(I2
tp27
g14
(S'S7'
p28
I0
I1
tp29
Rp30
(I3
S'|'
p31
NNNI7
I1
I0
tp32
bI00
S'attack.normal.'
p33
tp34
bsS'theta_'
p35
g7
(g8
(I0
tp36
g10
tp37
Rp38
(I1
(I2
I1
tp39
g17
I00
S'{/a\xc6\x1c#\n?\x88~X\xc8-\xc7\xe7>'
p40
tp41
bsS'sigma_'
p42
g7
(g8
(I0
tp43
g10
tp44
Rp45
(I1
(I2
I1
tp46
g17
I00
S'\xa5\xfe\xeba\xc7"\n?\xd5\xbf\xae\x1e\x1c\xc7\xe7>'
p47
tp48
bsS'_sklearn_version'
p49
S'0.19.1'
p50
sS'class_count_'
p51
g7
(g8
(I0
tp52
g10
tp53
Rp54
(I1
(I2
tp55
g17
I00
S'\x00\x00\x00\x00\x0cC\x17A\x00\x00\x00\x00P\x88\xf5@'
p56
tp57
bsb.